; Function Attrs: mustprogress nounwind uwtable
define hidden void @_ZN7testing8internal11ScopedTraceD2Ev(ptr nonnull readnone align 1 captures(none) %0) unnamed_addr #5 align 2 personality ptr @__gxx_personality_v0 {
  %2 = load atomic i8, ptr @_ZGVZN7testing8UnitTest11GetInstanceEvE8instance acquire, align 8
  %3 = icmp eq i8 %2, 0
  br i1 %3, label %4, label %_ZN7testing8UnitTest11GetInstanceEv.exit, !prof !5

4:                                                ; preds = %1
  %5 = tail call i32 @__cxa_guard_acquire(ptr nonnull @_ZGVZN7testing8UnitTest11GetInstanceEvE8instance) #53
  %.not.i = icmp eq i32 %5, 0
  br i1 %.not.i, label %_ZN7testing8UnitTest11GetInstanceEv.exit, label %6

6:                                                ; preds = %4
  invoke void @_ZN7testing8UnitTestC2Ev(ptr noundef nonnull align 8 dereferenceable(24) @_ZZN7testing8UnitTest11GetInstanceEvE8instance)
          to label %7 unwind label %.body

7:                                                ; preds = %6
  %8 = tail call i32 @__cxa_atexit(ptr nonnull @_ZN7testing8UnitTestD2Ev, ptr nonnull @_ZZN7testing8UnitTest11GetInstanceEvE8instance, ptr nonnull @__dso_handle) #53
  tail call void @__cxa_guard_release(ptr nonnull @_ZGVZN7testing8UnitTest11GetInstanceEvE8instance) #53
  br label %_ZN7testing8UnitTest11GetInstanceEv.exit

.body:                                            ; preds = %6
  %9 = landingpad { ptr, i32 }
          catch ptr null
  tail call void @__cxa_guard_abort(ptr nonnull @_ZGVZN7testing8UnitTest11GetInstanceEvE8instance) #53
  %10 = extractvalue { ptr, i32 } %9, 0
  tail call void @__clang_call_terminate(ptr %10) #58
  unreachable

_ZN7testing8UnitTest11GetInstanceEv.exit:         ; preds = %7, %4, %1
  %11 = load ptr, ptr getelementptr inbounds nuw (i8, ptr @_ZZN7testing8UnitTest11GetInstanceEvE8instance, i64 16), align 8
  %12 = getelementptr inbounds nuw i8, ptr %11, i64 384
  %13 = load ptr, ptr %12, align 8
  %14 = getelementptr inbounds i8, ptr %13, i64 -48
  store ptr %14, ptr %12, align 8
  %15 = getelementptr inbounds i8, ptr %13, i64 -32
  %16 = load ptr, ptr %15, align 8
  %17 = getelementptr inbounds i8, ptr %13, i64 -16
  %18 = icmp eq ptr %16, %17
  br i1 %18, label %_ZNKSt7__cxx1112basic_stringIcSt11char_traitsIcESaIcEE11_M_is_localEv.exit.thread.i.i.i.i.i.i.i, label %_ZNKSt7__cxx1112basic_stringIcSt11char_traitsIcESaIcEE11_M_is_localEv.exit.i.i.i.i.i.i.i

_ZNKSt7__cxx1112basic_stringIcSt11char_traitsIcESaIcEE11_M_is_localEv.exit.thread.i.i.i.i.i.i.i: ; preds = %_ZN7testing8UnitTest11GetInstanceEv.exit
  %19 = getelementptr inbounds i8, ptr %13, i64 -24
  %20 = load i64, ptr %19, align 8
  %21 = icmp ult i64 %20, 16
  tail call void @llvm.assume(i1 %21)
  br label %_ZN7testing8UnitTest13PopGTestTraceEv.exit

_ZNKSt7__cxx1112basic_stringIcSt11char_traitsIcESaIcEE11_M_is_localEv.exit.i.i.i.i.i.i.i: ; preds = %_ZN7testing8UnitTest11GetInstanceEv.exit
  tail call void @_ZdlPv(ptr noundef %16) #54
  br label %_ZN7testing8UnitTest13PopGTestTraceEv.exit

_ZN7testing8UnitTest13PopGTestTraceEv.exit:       ; preds = %_ZNKSt7__cxx1112basic_stringIcSt11char_traitsIcESaIcEE11_M_is_localEv.exit.i.i.i.i.i.i.i, %_ZNKSt7__cxx1112basic_stringIcSt11char_traitsIcESaIcEE11_M_is_localEv.exit.thread.i.i.i.i.i.i.i
  ret void
}